target datalayout = "e-m:e-p270:32:32-p271:32:32-p272:64:64-i64:64-i128:128-f80:128-n8:16:32:64-S128"
target triple = "x86_64-pc-linux-gnu"

%union.pthread_mutex_t = type { %struct.__pthread_mutex_s }
%struct.__pthread_mutex_s = type { i32, i32, i32, i32, i32, i16, i16, %struct.__pthread_internal_list }
%struct.__pthread_internal_list = type { ptr, ptr }
%struct.___itt_global = type { [8 x i8], i64, i64, i64, i64, i64, i64, %union.pthread_mutex_t, ptr, ptr, ptr, ptr, ptr, ptr, ptr, ptr, i32, ptr, i32, ptr, ptr }
%union.pthread_mutexattr_t = type { i32 }

@.str = private unnamed_addr constant [23 x i8] c"pthread_mutexattr_init\00", align 1
@.str.1 = private unnamed_addr constant [26 x i8] c"pthread_mutexattr_settype\00", align 1
@.str.2 = private unnamed_addr constant [19 x i8] c"pthread_mutex_init\00", align 1
@.str.3 = private unnamed_addr constant [26 x i8] c"pthread_mutexattr_destroy\00", align 1

; Function Attrs: alwaysinline nounwind uwtable
define internal i64 @__itt_interlocked_compare_exchange(ptr noundef %0, i64 noundef %1, i64 noundef %2) #4 {
  %4 = alloca ptr, align 8
  %5 = alloca i64, align 8
  %6 = alloca i64, align 8
  store ptr %0, ptr %4, align 8, !tbaa !125
  store i64 %1, ptr %5, align 8, !tbaa !25
  store i64 %2, ptr %6, align 8, !tbaa !25
  %7 = load ptr, ptr %4, align 8, !tbaa !125
  %8 = load i64, ptr %5, align 8, !tbaa !25
  %9 = load i64, ptr %6, align 8, !tbaa !25
  %10 = cmpxchg ptr %7, i64 %8, i64 %9 seq_cst seq_cst, align 8
  %11 = extractvalue { i64, i1 } %10, 0
  ret i64 %11
}

; Function Attrs: nounwind uwtable
define hidden void @__itt_release_resources() #0 {
  %1 = alloca %union.pthread_mutexattr_t, align 4
  %2 = alloca i32, align 4
  %3 = icmp ne ptr @pthread_mutex_init, null
  br i1 %3, label %4, label %60

4:                                                ; preds = %0
  %5 = icmp ne ptr @pthread_mutex_lock, null
  br i1 %5, label %6, label %60

6:                                                ; preds = %4
  %7 = icmp ne ptr @pthread_mutex_unlock, null
  br i1 %7, label %8, label %60

8:                                                ; preds = %6
  %9 = icmp ne ptr @pthread_mutex_destroy, null
  br i1 %9, label %10, label %60

10:                                               ; preds = %8
  %11 = icmp ne ptr @pthread_mutexattr_init, null
  br i1 %11, label %12, label %60

12:                                               ; preds = %10
  %13 = icmp ne ptr @pthread_mutexattr_settype, null
  br i1 %13, label %14, label %60

14:                                               ; preds = %12
  %15 = icmp ne ptr @pthread_mutexattr_destroy, null
  br i1 %15, label %16, label %60

16:                                               ; preds = %14
  %17 = icmp ne ptr @pthread_self, null
  br i1 %17, label %18, label %60

18:                                               ; preds = %16
  %19 = load volatile i64, ptr getelementptr inbounds nuw (%struct.___itt_global, ptr @__itt__ittapi_global, i32 0, i32 5), align 8, !tbaa !48
  %20 = icmp ne i64 %19, 0
  br i1 %20, label %58, label %21

21:                                               ; preds = %18
  %22 = call i64 @__itt_interlocked_compare_exchange(ptr noundef getelementptr inbounds nuw (%struct.___itt_global, ptr @__itt__ittapi_global, i32 0, i32 6), i64 noundef 1, i64 noundef 0)
  %23 = icmp eq i64 %22, 0
  br i1 %23, label %24, label %49

24:                                               ; preds = %21
  call void @llvm.lifetime.start.p0(i64 4, ptr %1) #8
  call void @llvm.lifetime.start.p0(i64 4, ptr %2) #8
  %25 = call i32 @pthread_mutexattr_init(ptr noundef %1) #8
  store i32 %25, ptr %2, align 4, !tbaa !24
  %26 = load i32, ptr %2, align 4, !tbaa !24
  %27 = icmp ne i32 %26, 0
  br i1 %27, label %28, label %30

28:                                               ; preds = %24
  %29 = load i32, ptr %2, align 4, !tbaa !24
  call void (i32, ...) @__itt_report_error(i32 noundef 6, ptr noundef @.str, i32 noundef %29)
  br label %30

30:                                               ; preds = %28, %24
  %31 = call i32 @pthread_mutexattr_settype(ptr noundef %1, i32 noundef 1) #8
  store i32 %31, ptr %2, align 4, !tbaa !24
  %32 = load i32, ptr %2, align 4, !tbaa !24
  %33 = icmp ne i32 %32, 0
  br i1 %33, label %34, label %36

34:                                               ; preds = %30
  %35 = load i32, ptr %2, align 4, !tbaa !24
  call void (i32, ...) @__itt_report_error(i32 noundef 6, ptr noundef @.str.1, i32 noundef %35)
  br label %36

36:                                               ; preds = %34, %30
  %37 = call i32 @pthread_mutex_init(ptr noundef getelementptr inbounds nuw (%struct.___itt_global, ptr @__itt__ittapi_global, i32 0, i32 7), ptr noundef %1) #8
  store i32 %37, ptr %2, align 4, !tbaa !24
  %38 = load i32, ptr %2, align 4, !tbaa !24
  %39 = icmp ne i32 %38, 0
  br i1 %39, label %40, label %42

40:                                               ; preds = %36
  %41 = load i32, ptr %2, align 4, !tbaa !24
  call void (i32, ...) @__itt_report_error(i32 noundef 6, ptr noundef @.str.2, i32 noundef %41)
  br label %42

42:                                               ; preds = %40, %36
  %43 = call i32 @pthread_mutexattr_destroy(ptr noundef %1) #8
  store i32 %43, ptr %2, align 4, !tbaa !24
  %44 = load i32, ptr %2, align 4, !tbaa !24
  %45 = icmp ne i32 %44, 0
  br i1 %45, label %46, label %48

46:                                               ; preds = %42
  %47 = load i32, ptr %2, align 4, !tbaa !24
  call void (i32, ...) @__itt_report_error(i32 noundef 6, ptr noundef @.str.3, i32 noundef %47)
  br label %48

48:                                               ; preds = %46, %42
  call void @llvm.lifetime.end.p0(i64 4, ptr %2) #8
  call void @llvm.lifetime.end.p0(i64 4, ptr %1) #8
  store volatile i64 1, ptr getelementptr inbounds nuw (%struct.___itt_global, ptr @__itt__ittapi_global, i32 0, i32 5), align 8, !tbaa !48
  br label %57

49:                                               ; preds = %21
  br label %50

50:                                               ; preds = %54, %49
  %51 = load volatile i64, ptr getelementptr inbounds nuw (%struct.___itt_global, ptr @__itt__ittapi_global, i32 0, i32 5), align 8, !tbaa !48
  %52 = icmp ne i64 %51, 0
  %53 = xor i1 %52, true
  br i1 %53, label %54, label %56

54:                                               ; preds = %50
  %55 = call i32 @sched_yield() #8
  br label %50, !llvm.loop !154

56:                                               ; preds = %50
  br label %57

57:                                               ; preds = %56, %48
  br label %58

58:                                               ; preds = %57, %18
  %59 = call i32 @pthread_mutex_lock(ptr noundef getelementptr inbounds nuw (%struct.___itt_global, ptr @__itt__ittapi_global, i32 0, i32 7)) #8
  br label %60

60:                                               ; preds = %58, %16, %14, %12, %10, %8, %6, %4, %0
  call void @__itt_free_allocated_resources()
  %61 = icmp ne ptr @pthread_mutex_init, null
  br i1 %61, label %62, label %78

62:                                               ; preds = %60
  %63 = icmp ne ptr @pthread_mutex_lock, null
  br i1 %63, label %64, label %78

64:                                               ; preds = %62
  %65 = icmp ne ptr @pthread_mutex_unlock, null
  br i1 %65, label %66, label %78

66:                                               ; preds = %64
  %67 = icmp ne ptr @pthread_mutex_destroy, null
  br i1 %67, label %68, label %78

68:                                               ; preds = %66
  %69 = icmp ne ptr @pthread_mutexattr_init, null
  br i1 %69, label %70, label %78

70:                                               ; preds = %68
  %71 = icmp ne ptr @pthread_mutexattr_settype, null
  br i1 %71, label %72, label %78

72:                                               ; preds = %70
  %73 = icmp ne ptr @pthread_mutexattr_destroy, null
  br i1 %73, label %74, label %78

74:                                               ; preds = %72
  %75 = icmp ne ptr @pthread_self, null
  br i1 %75, label %76, label %78

76:                                               ; preds = %74
  %77 = call i32 @pthread_mutex_unlock(ptr noundef getelementptr inbounds nuw (%struct.___itt_global, ptr @__itt__ittapi_global, i32 0, i32 7)) #8
  br label %78

78:                                               ; preds = %76, %74, %72, %70, %68, %66, %64, %62, %60
  %79 = icmp ne ptr @pthread_mutex_init, null
  br i1 %79, label %80, label %104

80:                                               ; preds = %78
  %81 = icmp ne ptr @pthread_mutex_lock, null
  br i1 %81, label %82, label %104

82:                                               ; preds = %80
  %83 = icmp ne ptr @pthread_mutex_unlock, null
  br i1 %83, label %84, label %104

84:                                               ; preds = %82
  %85 = icmp ne ptr @pthread_mutex_destroy, null
  br i1 %85, label %86, label %104

86:                                               ; preds = %84
  %87 = icmp ne ptr @pthread_mutexattr_init, null
  br i1 %87, label %88, label %104

88:                                               ; preds = %86
  %89 = icmp ne ptr @pthread_mutexattr_settype, null
  br i1 %89, label %90, label %104

90:                                               ; preds = %88
  %91 = icmp ne ptr @pthread_mutexattr_destroy, null
  br i1 %91, label %92, label %104

92:                                               ; preds = %90
  %93 = icmp ne ptr @pthread_self, null
  br i1 %93, label %94, label %104

94:                                               ; preds = %92
  %95 = load volatile i64, ptr getelementptr inbounds nuw (%struct.___itt_global, ptr @__itt__ittapi_global, i32 0, i32 5), align 8, !tbaa !48
  %96 = icmp ne i64 %95, 0
  br i1 %96, label %97, label %103

97:                                               ; preds = %94
  %98 = call i64 @__itt_interlocked_compare_exchange(ptr noundef getelementptr inbounds nuw (%struct.___itt_global, ptr @__itt__ittapi_global, i32 0, i32 6), i64 noundef 0, i64 noundef 1)
  %99 = icmp eq i64 %98, 1
  br i1 %99, label %100, label %102

100:                                              ; preds = %97
  %101 = call i32 @pthread_mutex_destroy(ptr noundef getelementptr inbounds nuw (%struct.___itt_global, ptr @__itt__ittapi_global, i32 0, i32 7)) #8
  store volatile i64 0, ptr getelementptr inbounds nuw (%struct.___itt_global, ptr @__itt__ittapi_global, i32 0, i32 5), align 8, !tbaa !48
  br label %102

102:                                              ; preds = %100, %97
  br label %103

103:                                              ; preds = %102, %94
  br label %104

104:                                              ; preds = %103, %92, %90, %88, %86, %84, %82, %80, %78
  ret void
}